target datalayout = "e-m:e-p270:32:32-p271:32:32-p272:64:64-i64:64-i128:128-f80:128-n8:16:32:64-S128"
target triple = "x86_64-pc-linux-gnu"

%struct.FullTransactionId = type { i64 }
%struct.FunctionCallInfoBaseData = type { ptr, ptr, ptr, i32, i8, i16, [0 x %struct.NullableDatum] }
%struct.NullableDatum = type { i64, i8 }
%struct.pg_snapshot = type { i32, i32, %struct.FullTransactionId, %struct.FullTransactionId, [0 x %struct.FullTransactionId] }
%struct.StringInfoData = type { ptr, i32, i32, i32 }

@.str.3 = private unnamed_addr constant [5 x i8] c"%lu:\00", align 1
@.str.4 = private unnamed_addr constant [4 x i8] c"%lu\00", align 1

; Function Attrs: inlinehint nounwind uwtable
define internal i64 @PointerGetDatum(ptr noundef %0) #2 {
  %2 = alloca ptr, align 8
  store ptr %0, ptr %2, align 8
  %3 = load ptr, ptr %2, align 8
  %4 = ptrtoint ptr %3 to i64
  ret i64 %4
}

; Function Attrs: inlinehint nounwind uwtable
define internal i64 @CStringGetDatum(ptr noundef %0) #2 {
  %2 = alloca ptr, align 8
  store ptr %0, ptr %2, align 8
  %3 = load ptr, ptr %2, align 8
  %4 = call i64 @PointerGetDatum(ptr noundef %3)
  ret i64 %4
}

; Function Attrs: inlinehint nounwind uwtable
define internal ptr @DatumGetPointer(i64 noundef %0) #2 {
  %2 = alloca i64, align 8
  store i64 %0, ptr %2, align 8
  %3 = load i64, ptr %2, align 8
  %4 = inttoptr i64 %3 to ptr
  ret ptr %4
}

; Function Attrs: nounwind uwtable
define dso_local i64 @pg_snapshot_out(ptr noundef %0) #0 {
  %2 = alloca ptr, align 8
  %3 = alloca ptr, align 8
  %4 = alloca %struct.StringInfoData, align 8
  %5 = alloca i32, align 4
  store ptr %0, ptr %2, align 8
  call void @llvm.lifetime.start.p0(i64 8, ptr %3) #9
  %6 = load ptr, ptr %2, align 8
  %7 = getelementptr inbounds nuw %struct.FunctionCallInfoBaseData, ptr %6, i32 0, i32 6
  %8 = getelementptr inbounds [0 x %struct.NullableDatum], ptr %7, i64 0, i64 0
  %9 = getelementptr inbounds nuw %struct.NullableDatum, ptr %8, i32 0, i32 0
  %10 = load i64, ptr %9, align 8
  %11 = call ptr @DatumGetPointer(i64 noundef %10)
  %12 = call ptr @pg_detoast_datum(ptr noundef %11)
  store ptr %12, ptr %3, align 8
  call void @llvm.lifetime.start.p0(i64 24, ptr %4) #9
  call void @llvm.lifetime.start.p0(i64 4, ptr %5) #9
  call void @initStringInfo(ptr noundef %4)
  %13 = load ptr, ptr %3, align 8
  %14 = getelementptr inbounds nuw %struct.pg_snapshot, ptr %13, i32 0, i32 2
  %15 = getelementptr inbounds nuw %struct.FullTransactionId, ptr %14, i32 0, i32 0
  %16 = load i64, ptr %15, align 8
  call void (ptr, ptr, ...) @appendStringInfo(ptr noundef %4, ptr noundef @.str.3, i64 noundef %16)
  %17 = load ptr, ptr %3, align 8
  %18 = getelementptr inbounds nuw %struct.pg_snapshot, ptr %17, i32 0, i32 3
  %19 = getelementptr inbounds nuw %struct.FullTransactionId, ptr %18, i32 0, i32 0
  %20 = load i64, ptr %19, align 8
  call void (ptr, ptr, ...) @appendStringInfo(ptr noundef %4, ptr noundef @.str.3, i64 noundef %20)
  store i32 0, ptr %5, align 4
  br label %21

21:                                               ; preds = %39, %1
  %22 = load i32, ptr %5, align 4
  %23 = load ptr, ptr %3, align 8
  %24 = getelementptr inbounds nuw %struct.pg_snapshot, ptr %23, i32 0, i32 1
  %25 = load i32, ptr %24, align 4
  %26 = icmp ult i32 %22, %25
  br i1 %26, label %27, label %42

27:                                               ; preds = %21
  %28 = load i32, ptr %5, align 4
  %29 = icmp ugt i32 %28, 0
  br i1 %29, label %30, label %31

30:                                               ; preds = %27
  call void @appendStringInfoChar(ptr noundef %4, i8 noundef signext 44)
  br label %31

31:                                               ; preds = %30, %27
  %32 = load ptr, ptr %3, align 8
  %33 = getelementptr inbounds nuw %struct.pg_snapshot, ptr %32, i32 0, i32 4
  %34 = load i32, ptr %5, align 4
  %35 = zext i32 %34 to i64
  %36 = getelementptr inbounds nuw [0 x %struct.FullTransactionId], ptr %33, i64 0, i64 %35
  %37 = getelementptr inbounds nuw %struct.FullTransactionId, ptr %36, i32 0, i32 0
  %38 = load i64, ptr %37, align 8
  call void (ptr, ptr, ...) @appendStringInfo(ptr noundef %4, ptr noundef @.str.4, i64 noundef %38)
  br label %39

39:                                               ; preds = %31
  %40 = load i32, ptr %5, align 4
  %41 = add i32 %40, 1
  store i32 %41, ptr %5, align 4
  br label %21, !llvm.loop !7

42:                                               ; preds = %21
  %43 = getelementptr inbounds nuw %struct.StringInfoData, ptr %4, i32 0, i32 0
  %44 = load ptr, ptr %43, align 8
  %45 = call i64 @CStringGetDatum(ptr noundef %44)
  call void @llvm.lifetime.end.p0(i64 4, ptr %5) #9
  call void @llvm.lifetime.end.p0(i64 24, ptr %4) #9
  call void @llvm.lifetime.end.p0(i64 8, ptr %3) #9
  ret i64 %45
}