; Function Attrs: nounwind uwtable
define dso_local i64 @pg_snapshot_out(ptr noundef readonly captures(none) %0) local_unnamed_addr #0 {
  %2 = alloca %struct.StringInfoData, align 8
  %3 = getelementptr inbounds nuw i8, ptr %0, i64 32
  %4 = load i64, ptr %3, align 8
  %5 = inttoptr i64 %4 to ptr
  %6 = tail call ptr @pg_detoast_datum(ptr noundef %5) #11
  call void @llvm.lifetime.start.p0(i64 24, ptr nonnull %2) #11
  call void @initStringInfo(ptr noundef nonnull %2) #11
  %7 = getelementptr inbounds nuw i8, ptr %6, i64 8
  %8 = load i64, ptr %7, align 8
  call void (ptr, ptr, ...) @appendStringInfo(ptr noundef nonnull %2, ptr noundef nonnull @.str.3, i64 noundef %8) #11
  %9 = getelementptr inbounds nuw i8, ptr %6, i64 16
  %10 = load i64, ptr %9, align 8
  call void (ptr, ptr, ...) @appendStringInfo(ptr noundef nonnull %2, ptr noundef nonnull @.str.3, i64 noundef %10) #11
  %11 = getelementptr inbounds nuw i8, ptr %6, i64 4
  %12 = load i32, ptr %11, align 4
  %.not9 = icmp eq i32 %12, 0
  br i1 %.not9, label %._crit_edge, label %.lr.ph

.lr.ph:                                           ; preds = %1
  %13 = getelementptr inbounds nuw i8, ptr %6, i64 24
  br label %14

14:                                               ; preds = %.lr.ph, %16
  %indvars.iv = phi i64 [ 0, %.lr.ph ], [ %indvars.iv.next, %16 ]
  %.not = icmp eq i64 %indvars.iv, 0
  br i1 %.not, label %16, label %15

15:                                               ; preds = %14
  call void @appendStringInfoChar(ptr noundef nonnull %2, i8 noundef signext 44) #11
  br label %16

16:                                               ; preds = %15, %14
  %17 = getelementptr inbounds nuw [0 x %struct.FullTransactionId], ptr %13, i64 0, i64 %indvars.iv
  %18 = load i64, ptr %17, align 8
  call void (ptr, ptr, ...) @appendStringInfo(ptr noundef nonnull %2, ptr noundef nonnull @.str.4, i64 noundef %18) #11
  %indvars.iv.next = add nuw nsw i64 %indvars.iv, 1
  %19 = load i32, ptr %11, align 4
  %20 = zext i32 %19 to i64
  %21 = icmp samesign ult i64 %indvars.iv.next, %20
  br i1 %21, label %14, label %._crit_edge, !llvm.loop !9

._crit_edge:                                      ; preds = %16, %1
  %22 = load ptr, ptr %2, align 8
  %23 = ptrtoint ptr %22 to i64
  call void @llvm.lifetime.end.p0(i64 24, ptr nonnull %2) #11
  ret i64 %23
}